target datalayout = "e-m:e-p270:32:32-p271:32:32-p272:64:64-i64:64-i128:128-f80:128-n8:16:32:64-S128"
target triple = "x86_64-pc-linux-gnu"

%class.AstToDfgVisitor = type { %class.VNVisitor, %class.VNUser1InUse, ptr, ptr, i8, %"class.std::vector.42", i8, %"class.std::vector.47", %"class.std::vector.52" }
%class.VNVisitor = type { %class.VNVisitorConst, %class.VNDeleter }
%class.VNVisitorConst = type { ptr }
%class.VNDeleter = type { %"class.std::vector.37" }
%"class.std::vector.37" = type { %"struct.std::_Vector_base.38" }
%"struct.std::_Vector_base.38" = type { %"struct.std::_Vector_base<AstNode *, std::allocator<AstNode *>>::_Vector_impl" }
%"struct.std::_Vector_base<AstNode *, std::allocator<AstNode *>>::_Vector_impl" = type { %"struct.std::_Vector_base<AstNode *, std::allocator<AstNode *>>::_Vector_impl_data" }
%"struct.std::_Vector_base<AstNode *, std::allocator<AstNode *>>::_Vector_impl_data" = type { ptr, ptr, ptr }
%class.VNUser1InUse = type { i8 }
%"class.std::vector.42" = type { %"struct.std::_Vector_base.43" }
%"struct.std::_Vector_base.43" = type { %"struct.std::_Vector_base<DfgVertex *, std::allocator<DfgVertex *>>::_Vector_impl" }
%"struct.std::_Vector_base<DfgVertex *, std::allocator<DfgVertex *>>::_Vector_impl" = type { %"struct.std::_Vector_base<DfgVertex *, std::allocator<DfgVertex *>>::_Vector_impl_data" }
%"struct.std::_Vector_base<DfgVertex *, std::allocator<DfgVertex *>>::_Vector_impl_data" = type { ptr, ptr, ptr }
%"class.std::vector.47" = type { %"struct.std::_Vector_base.48" }
%"struct.std::_Vector_base.48" = type { %"struct.std::_Vector_base<DfgVarPacked *, std::allocator<DfgVarPacked *>>::_Vector_impl" }
%"struct.std::_Vector_base<DfgVarPacked *, std::allocator<DfgVarPacked *>>::_Vector_impl" = type { %"struct.std::_Vector_base<DfgVarPacked *, std::allocator<DfgVarPacked *>>::_Vector_impl_data" }
%"struct.std::_Vector_base<DfgVarPacked *, std::allocator<DfgVarPacked *>>::_Vector_impl_data" = type { ptr, ptr, ptr }
%"class.std::vector.52" = type { %"struct.std::_Vector_base.53" }
%"struct.std::_Vector_base.53" = type { %"struct.std::_Vector_base<DfgVarArray *, std::allocator<DfgVarArray *>>::_Vector_impl" }
%"struct.std::_Vector_base<DfgVarArray *, std::allocator<DfgVarArray *>>::_Vector_impl" = type { %"struct.std::_Vector_base<DfgVarArray *, std::allocator<DfgVarArray *>>::_Vector_impl_data" }
%"struct.std::_Vector_base<DfgVarArray *, std::allocator<DfgVarArray *>>::_Vector_impl_data" = type { ptr, ptr, ptr }

; Function Attrs: mustprogress uwtable
define linkonce_odr dso_local noundef ptr @_ZN15AstToDfgVisitor5applyER9AstModuleR24V3DfgOptimizationContext(ptr noundef nonnull align 8 dereferenceable(264) %0, ptr noundef nonnull align 8 dereferenceable(1336) %1) #4 comdat align 2 {
  %3 = alloca ptr, align 8
  %4 = alloca ptr, align 8
  %5 = alloca %class.AstToDfgVisitor, align 8
  store ptr %0, ptr %3, align 8
  store ptr %1, ptr %4, align 8
  %6 = load ptr, ptr %3, align 8
  %7 = load ptr, ptr %4, align 8
  call void @_ZN15AstToDfgVisitorC2ER9AstModuleR24V3DfgOptimizationContext(ptr noundef nonnull align 8 dereferenceable(144) %5, ptr noundef nonnull align 8 dereferenceable(264) %6, ptr noundef nonnull align 8 dereferenceable(1336) %7)
  %8 = getelementptr inbounds %class.AstToDfgVisitor, ptr %5, i32 0, i32 2
  %9 = load ptr, ptr %8, align 8
  call void @_ZN15AstToDfgVisitorD2Ev(ptr noundef nonnull align 8 dereferenceable(144) %5) #3
  ret ptr %9
}

; Function Attrs: mustprogress uwtable
define dso_local noundef ptr @_ZN11V3DfgPasses8astToDfgER9AstModuleR24V3DfgOptimizationContext(ptr noundef nonnull align 8 dereferenceable(264) %0, ptr noundef nonnull align 8 dereferenceable(1336) %1) #4 {
  %3 = alloca ptr, align 8
  %4 = alloca ptr, align 8
  store ptr %0, ptr %3, align 8
  store ptr %1, ptr %4, align 8
  %5 = load ptr, ptr %3, align 8
  %6 = load ptr, ptr %4, align 8
  %7 = call noundef ptr @_ZN15AstToDfgVisitor5applyER9AstModuleR24V3DfgOptimizationContext(ptr noundef nonnull align 8 dereferenceable(264) %5, ptr noundef nonnull align 8 dereferenceable(1336) %6)
  ret ptr %7
}