; Function Attrs: mustprogress uwtable
define dso_local noundef ptr @_ZN11V3DfgPasses8astToDfgER9AstModuleR24V3DfgOptimizationContext(ptr noundef nonnull align 8 dereferenceable(264) %0, ptr noundef nonnull align 8 dereferenceable(1336) %1) #3 {
  %3 = alloca %class.AstToDfgVisitor, align 8
  call void @llvm.lifetime.start.p0(i64 144, ptr nonnull %3)
  call void @_ZN15AstToDfgVisitorC2ER9AstModuleR24V3DfgOptimizationContext(ptr noundef nonnull align 8 dereferenceable(144) %3, ptr noundef nonnull align 8 dereferenceable(264) %0, ptr noundef nonnull align 8 dereferenceable(1336) %1)
  %4 = getelementptr inbounds i8, ptr %3, i64 40
  %5 = load ptr, ptr %4, align 8
  call void @_ZN15AstToDfgVisitorD2Ev(ptr noundef nonnull align 8 dereferenceable(144) %3) #22
  call void @llvm.lifetime.end.p0(i64 144, ptr nonnull %3)
  ret ptr %5
}